; Function Attrs: mustprogress uwtable
define { <2 x float>, float } @_ZNK32pxrInternal_v0_24__pxrReserved__10GfRotation12TransformDirERKNS_7GfVec3fE(ptr noundef nonnull align 8 dereferenceable(32) %0, ptr nocapture noundef nonnull readonly align 4 dereferenceable(12) %1) local_unnamed_addr #7 align 2 {
  %3 = alloca %"class.pxrInternal_v0_24__pxrReserved__::GfMatrix4d", align 8
  call void @llvm.memset.p0.i64(ptr noundef nonnull align 8 dereferenceable(128) %3, i8 0, i64 128, i1 false)
  %4 = call noundef nonnull align 8 dereferenceable(128) ptr @_ZN32pxrInternal_v0_24__pxrReserved__10GfMatrix4d9SetRotateERKNS_10GfRotationE(ptr noundef nonnull align 8 dereferenceable(128) %3, ptr noundef nonnull align 8 dereferenceable(32) %0)
  %5 = load float, ptr %1, align 4
  %6 = fpext float %5 to double
  %7 = load double, ptr %4, align 8
  %8 = getelementptr inbounds i8, ptr %1, i64 4
  %9 = load float, ptr %8, align 4
  %10 = fpext float %9 to double
  %11 = getelementptr inbounds i8, ptr %4, i64 32
  %12 = load double, ptr %11, align 8
  %13 = fmul double %12, %10
  %14 = call double @llvm.fmuladd.f64(double %6, double %7, double %13)
  %15 = getelementptr inbounds i8, ptr %1, i64 8
  %16 = load float, ptr %15, align 4
  %17 = fpext float %16 to double
  %18 = getelementptr inbounds i8, ptr %4, i64 64
  %19 = load double, ptr %18, align 8
  %20 = call double @llvm.fmuladd.f64(double %17, double %19, double %14)
  %21 = fptrunc double %20 to float
  %22 = getelementptr inbounds i8, ptr %4, i64 8
  %23 = load double, ptr %22, align 8
  %24 = getelementptr inbounds i8, ptr %4, i64 40
  %25 = load double, ptr %24, align 8
  %26 = fmul double %25, %10
  %27 = call double @llvm.fmuladd.f64(double %6, double %23, double %26)
  %28 = getelementptr inbounds i8, ptr %4, i64 72
  %29 = load double, ptr %28, align 8
  %30 = call double @llvm.fmuladd.f64(double %17, double %29, double %27)
  %31 = fptrunc double %30 to float
  %32 = getelementptr inbounds i8, ptr %4, i64 16
  %33 = load double, ptr %32, align 8
  %34 = getelementptr inbounds i8, ptr %4, i64 48
  %35 = load double, ptr %34, align 8
  %36 = fmul double %35, %10
  %37 = call double @llvm.fmuladd.f64(double %6, double %33, double %36)
  %38 = getelementptr inbounds i8, ptr %4, i64 80
  %39 = load double, ptr %38, align 8
  %40 = call double @llvm.fmuladd.f64(double %17, double %39, double %37)
  %41 = fptrunc double %40 to float
  %.sroa.0.0.vec.insert.i = insertelement <2 x float> poison, float %21, i64 0
  %.sroa.0.4.vec.insert.i = insertelement <2 x float> %.sroa.0.0.vec.insert.i, float %31, i64 1
  %.fca.0.insert.i = insertvalue { <2 x float>, float } poison, <2 x float> %.sroa.0.4.vec.insert.i, 0
  %.fca.1.insert.i = insertvalue { <2 x float>, float } %.fca.0.insert.i, float %41, 1
  ret { <2 x float>, float } %.fca.1.insert.i
}